target datalayout = "e-m:e-p270:32:32-p271:32:32-p272:64:64-i64:64-i128:128-f80:128-n8:16:32:64-S128"
target triple = "x86_64-pc-linux-gnu"

%struct.SDL_AudioStream = type { ptr, i32, ptr, ptr, ptr, ptr, %struct.SDL_AudioSpec, %struct.SDL_AudioSpec, ptr, ptr, float, float, ptr, %struct.SDL_AudioSpec, ptr, [8 x i32], i64, ptr, i64, i8, ptr, ptr, ptr, ptr, ptr }
%struct.SDL_AudioSpec = type { i32, i32, i32 }

@.str = private unnamed_addr constant [26 x i8] c"Parameter '%s' is invalid\00", align 1
@.str.1 = private unnamed_addr constant [7 x i8] c"stream\00", align 1
@.str.2 = private unnamed_addr constant [28 x i8] c"Stream has no source format\00", align 1
@.str.3 = private unnamed_addr constant [33 x i8] c"Stream has no destination format\00", align 1

; Function Attrs: nounwind uwtable
define internal i64 @GetAudioStreamAvailableFrames(ptr noundef %0, ptr noundef %1) #0 {
  %3 = alloca ptr, align 8
  %4 = alloca ptr, align 8
  %5 = alloca ptr, align 8
  %6 = alloca i64, align 8
  %7 = alloca i64, align 8
  store ptr %0, ptr %3, align 8
  store ptr %1, ptr %4, align 8
  call void @llvm.lifetime.start.p0(i64 8, ptr %5) #7
  %8 = load ptr, ptr %3, align 8
  %9 = getelementptr inbounds nuw %struct.SDL_AudioStream, ptr %8, i32 0, i32 12
  %10 = load ptr, ptr %9, align 8
  %11 = call ptr @SDL_BeginAudioQueueIter(ptr noundef %10)
  store ptr %11, ptr %5, align 8
  call void @llvm.lifetime.start.p0(i64 8, ptr %6) #7
  %12 = load ptr, ptr %3, align 8
  %13 = getelementptr inbounds nuw %struct.SDL_AudioStream, ptr %12, i32 0, i32 16
  %14 = load i64, ptr %13, align 8
  store i64 %14, ptr %6, align 8
  call void @llvm.lifetime.start.p0(i64 8, ptr %7) #7
  store i64 0, ptr %7, align 8
  br label %15

15:                                               ; preds = %26, %2
  %16 = load ptr, ptr %5, align 8
  %17 = icmp ne ptr %16, null
  br i1 %17, label %18, label %27

18:                                               ; preds = %15
  %19 = load ptr, ptr %3, align 8
  %20 = call i64 @NextAudioStreamIter(ptr noundef %19, ptr noundef %5, ptr noundef %6, ptr noundef null, ptr noundef null, ptr noundef null)
  %21 = load i64, ptr %7, align 8
  %22 = add nsw i64 %21, %20
  store i64 %22, ptr %7, align 8
  %23 = load i64, ptr %7, align 8
  %24 = icmp sge i64 %23, 2147483647
  br i1 %24, label %25, label %26

25:                                               ; preds = %18
  store i64 2147483647, ptr %7, align 8
  br label %27

26:                                               ; preds = %18
  br label %15, !llvm.loop !45

27:                                               ; preds = %25, %15
  %28 = load ptr, ptr %4, align 8
  %29 = icmp ne ptr %28, null
  br i1 %29, label %30, label %33

30:                                               ; preds = %27
  %31 = load i64, ptr %6, align 8
  %32 = load ptr, ptr %4, align 8
  store i64 %31, ptr %32, align 8
  br label %33

33:                                               ; preds = %30, %27
  %34 = load i64, ptr %7, align 8
  call void @llvm.lifetime.end.p0(i64 8, ptr %7) #7
  call void @llvm.lifetime.end.p0(i64 8, ptr %6) #7
  call void @llvm.lifetime.end.p0(i64 8, ptr %5) #7
  ret i64 %34
}

; Function Attrs: nounwind uwtable
define internal zeroext i1 @CheckAudioStreamIsFullySetup(ptr noundef %0) #0 {
  %2 = alloca i1, align 1
  %3 = alloca ptr, align 8
  store ptr %0, ptr %3, align 8
  %4 = load ptr, ptr %3, align 8
  %5 = getelementptr inbounds nuw %struct.SDL_AudioStream, ptr %4, i32 0, i32 6
  %6 = getelementptr inbounds nuw %struct.SDL_AudioSpec, ptr %5, i32 0, i32 0
  %7 = load i32, ptr %6, align 8
  %8 = icmp eq i32 %7, 0
  br i1 %8, label %9, label %11

9:                                                ; preds = %1
  %10 = call zeroext i1 (ptr, ...) @SDL_SetError_REAL(ptr noundef @.str.2)
  store i1 %10, ptr %2, align 1
  br label %21

11:                                               ; preds = %1
  %12 = load ptr, ptr %3, align 8
  %13 = getelementptr inbounds nuw %struct.SDL_AudioStream, ptr %12, i32 0, i32 7
  %14 = getelementptr inbounds nuw %struct.SDL_AudioSpec, ptr %13, i32 0, i32 0
  %15 = load i32, ptr %14, align 4
  %16 = icmp eq i32 %15, 0
  br i1 %16, label %17, label %19

17:                                               ; preds = %11
  %18 = call zeroext i1 (ptr, ...) @SDL_SetError_REAL(ptr noundef @.str.3)
  store i1 %18, ptr %2, align 1
  br label %21

19:                                               ; preds = %11
  br label %20

20:                                               ; preds = %19
  store i1 true, ptr %2, align 1
  br label %21

21:                                               ; preds = %20, %17, %9
  %22 = load i1, ptr %2, align 1
  ret i1 %22
}

; Function Attrs: nounwind uwtable
define hidden i32 @SDL_GetAudioStreamAvailable_REAL(ptr noundef %0) #0 {
  %2 = alloca i32, align 4
  %3 = alloca ptr, align 8
  %4 = alloca i64, align 8
  store ptr %0, ptr %3, align 8
  %5 = load ptr, ptr %3, align 8
  %6 = icmp ne ptr %5, null
  br i1 %6, label %9, label %7

7:                                                ; preds = %1
  %8 = call zeroext i1 (ptr, ...) @SDL_SetError_REAL(ptr noundef @.str, ptr noundef @.str.1)
  store i32 -1, ptr %2, align 4
  br label %47

9:                                                ; preds = %1
  %10 = load ptr, ptr %3, align 8
  %11 = getelementptr inbounds nuw %struct.SDL_AudioStream, ptr %10, i32 0, i32 0
  %12 = load ptr, ptr %11, align 8
  call void @SDL_LockMutex_REAL(ptr noundef %12)
  %13 = load ptr, ptr %3, align 8
  %14 = call zeroext i1 @CheckAudioStreamIsFullySetup(ptr noundef %13)
  br i1 %14, label %19, label %15

15:                                               ; preds = %9
  %16 = load ptr, ptr %3, align 8
  %17 = getelementptr inbounds nuw %struct.SDL_AudioStream, ptr %16, i32 0, i32 0
  %18 = load ptr, ptr %17, align 8
  call void @SDL_UnlockMutex_REAL(ptr noundef %18)
  store i32 0, ptr %2, align 4
  br label %47

19:                                               ; preds = %9
  call void @llvm.lifetime.start.p0(i64 8, ptr %4) #7
  %20 = load ptr, ptr %3, align 8
  %21 = call i64 @GetAudioStreamAvailableFrames(ptr noundef %20, ptr noundef null)
  store i64 %21, ptr %4, align 8
  %22 = load ptr, ptr %3, align 8
  %23 = getelementptr inbounds nuw %struct.SDL_AudioStream, ptr %22, i32 0, i32 7
  %24 = getelementptr inbounds nuw %struct.SDL_AudioSpec, ptr %23, i32 0, i32 0
  %25 = load i32, ptr %24, align 4
  %26 = and i32 %25, 255
  %27 = udiv i32 %26, 8
  %28 = load ptr, ptr %3, align 8
  %29 = getelementptr inbounds nuw %struct.SDL_AudioStream, ptr %28, i32 0, i32 7
  %30 = getelementptr inbounds nuw %struct.SDL_AudioSpec, ptr %29, i32 0, i32 1
  %31 = load i32, ptr %30, align 4
  %32 = mul i32 %27, %31
  %33 = zext i32 %32 to i64
  %34 = load i64, ptr %4, align 8
  %35 = mul nsw i64 %34, %33
  store i64 %35, ptr %4, align 8
  %36 = load ptr, ptr %3, align 8
  %37 = getelementptr inbounds nuw %struct.SDL_AudioStream, ptr %36, i32 0, i32 0
  %38 = load ptr, ptr %37, align 8
  call void @SDL_UnlockMutex_REAL(ptr noundef %38)
  %39 = load i64, ptr %4, align 8
  %40 = icmp slt i64 %39, 2147483647
  br i1 %40, label %41, label %43

41:                                               ; preds = %19
  %42 = load i64, ptr %4, align 8
  br label %44

43:                                               ; preds = %19
  br label %44

44:                                               ; preds = %43, %41
  %45 = phi i64 [ %42, %41 ], [ 2147483647, %43 ]
  %46 = trunc i64 %45 to i32
  store i32 %46, ptr %2, align 4
  call void @llvm.lifetime.end.p0(i64 8, ptr %4) #7
  br label %47

47:                                               ; preds = %44, %15, %7
  %48 = load i32, ptr %2, align 4
  ret i32 %48
}