; Function Attrs: nounwind uwtable
define hidden i32 @SDL_GetAudioStreamAvailable_REAL(ptr noundef readonly captures(address_is_null) %0) local_unnamed_addr #2 {
  %2 = alloca ptr, align 8
  %3 = alloca i64, align 8
  %.not = icmp eq ptr %0, null
  br i1 %.not, label %4, label %6

4:                                                ; preds = %1
  %5 = tail call zeroext i1 (ptr, ...) @SDL_SetError_REAL(ptr noundef nonnull @.str, ptr noundef nonnull @.str.1) #11
  br label %38

6:                                                ; preds = %1
  %7 = load ptr, ptr %0, align 8
  tail call void @SDL_LockMutex_REAL(ptr noundef %7) #11
  %8 = getelementptr inbounds nuw i8, ptr %0, i64 48
  %9 = load i32, ptr %8, align 8
  %10 = icmp eq i32 %9, 0
  br i1 %10, label %CheckAudioStreamIsFullySetup.exit, label %11

11:                                               ; preds = %6
  %12 = getelementptr inbounds nuw i8, ptr %0, i64 60
  %13 = load i32, ptr %12, align 4
  %14 = icmp eq i32 %13, 0
  br i1 %14, label %CheckAudioStreamIsFullySetup.exit, label %CheckAudioStreamIsFullySetup.exit.thread

CheckAudioStreamIsFullySetup.exit:                ; preds = %6, %11
  %.str.3.sink.i = phi ptr [ @.str.2, %6 ], [ @.str.3, %11 ]
  %15 = tail call zeroext i1 (ptr, ...) @SDL_SetError_REAL(ptr noundef nonnull %.str.3.sink.i) #11
  br i1 %15, label %CheckAudioStreamIsFullySetup.exit.thread, label %16

16:                                               ; preds = %CheckAudioStreamIsFullySetup.exit
  %17 = load ptr, ptr %0, align 8
  tail call void @SDL_UnlockMutex_REAL(ptr noundef %17) #11
  br label %38

CheckAudioStreamIsFullySetup.exit.thread:         ; preds = %11, %CheckAudioStreamIsFullySetup.exit
  call void @llvm.lifetime.start.p0(i64 8, ptr nonnull %2) #11
  %18 = getelementptr inbounds nuw i8, ptr %0, i64 96
  %19 = load ptr, ptr %18, align 8
  %20 = tail call ptr @SDL_BeginAudioQueueIter(ptr noundef %19) #11
  store ptr %20, ptr %2, align 8
  call void @llvm.lifetime.start.p0(i64 8, ptr nonnull %3) #11
  %21 = getelementptr inbounds nuw i8, ptr %0, i64 160
  %22 = load i64, ptr %21, align 8
  store i64 %22, ptr %3, align 8
  %.not10.i = icmp eq ptr %20, null
  br i1 %.not10.i, label %GetAudioStreamAvailableFrames.exit, label %.lr.ph.i

thread-pre-split.i:                               ; preds = %.lr.ph.i
  %.pr.i = load ptr, ptr %2, align 8
  %.not.i = icmp eq ptr %.pr.i, null
  br i1 %.not.i, label %GetAudioStreamAvailableFrames.exit, label %.lr.ph.i

.lr.ph.i:                                         ; preds = %CheckAudioStreamIsFullySetup.exit.thread, %thread-pre-split.i
  %.011.i = phi i64 [ %24, %thread-pre-split.i ], [ 0, %CheckAudioStreamIsFullySetup.exit.thread ]
  %23 = call fastcc i64 @NextAudioStreamIter(ptr noundef nonnull readonly %0, ptr noundef %2, ptr noundef %3, ptr noundef null, ptr noundef null, ptr noundef null)
  %24 = add nsw i64 %23, %.011.i
  %25 = icmp sgt i64 %24, 2147483646
  br i1 %25, label %._crit_edge.i, label %thread-pre-split.i, !llvm.loop !50

._crit_edge.i:                                    ; preds = %.lr.ph.i
  br label %GetAudioStreamAvailableFrames.exit, !llvm.loop !50

GetAudioStreamAvailableFrames.exit:               ; preds = %thread-pre-split.i, %CheckAudioStreamIsFullySetup.exit.thread, %._crit_edge.i
  %.1.i = phi i64 [ 2147483647, %._crit_edge.i ], [ 0, %CheckAudioStreamIsFullySetup.exit.thread ], [ %24, %thread-pre-split.i ]
  call void @llvm.lifetime.end.p0(i64 8, ptr nonnull %3) #11
  call void @llvm.lifetime.end.p0(i64 8, ptr nonnull %2) #11
  %26 = getelementptr inbounds nuw i8, ptr %0, i64 60
  %27 = load i32, ptr %26, align 4
  %28 = lshr i32 %27, 3
  %29 = and i32 %28, 31
  %30 = getelementptr inbounds nuw i8, ptr %0, i64 64
  %31 = load i32, ptr %30, align 4
  %32 = mul i32 %29, %31
  %33 = zext i32 %32 to i64
  %34 = mul nsw i64 %.1.i, %33
  %35 = load ptr, ptr %0, align 8
  call void @SDL_UnlockMutex_REAL(ptr noundef %35) #11
  %36 = call i64 @llvm.smin.i64(i64 %34, i64 2147483647)
  %37 = trunc i64 %36 to i32
  br label %38

38:                                               ; preds = %GetAudioStreamAvailableFrames.exit, %16, %4
  %.0 = phi i32 [ %37, %GetAudioStreamAvailableFrames.exit ], [ 0, %16 ], [ -1, %4 ]
  ret i32 %.0
}